target datalayout = "e-m:e-p270:32:32-p271:32:32-p272:64:64-i64:64-i128:128-f80:128-n8:16:32:64-S128"
target triple = "x86_64-pc-linux-gnu"

%struct._zend_executor_globals = type { %struct._zval_struct, %struct._zval_struct, [32 x ptr], ptr, ptr, %struct._zend_array, %struct._zend_array, ptr, i32, i32, ptr, ptr, ptr, ptr, ptr, ptr, i64, ptr, ptr, i32, i32, i64, i32, i32, i32, i8, i8, %struct.zend_atomic_bool_s, %struct.zend_atomic_bool_s, ptr, i64, ptr, ptr, %struct._zend_array, %struct._zend_array, i32, i8, %struct._zval_struct, %struct._zval_struct, %struct._zend_stack, %struct._zend_stack, %struct._zend_stack, ptr, i32, i32, i64, ptr, ptr, ptr, %struct._zend_objects_store, ptr, ptr, ptr, [3 x %struct._zend_op], ptr, i8, i8, i64, i32, i32, ptr, [16 x %struct._HashTableIterator], ptr, %union._zend_function, %struct._zend_op, %struct._zend_array, i64, %struct.zend_get_gc_buffer, ptr, ptr, ptr, i64, i8, i32, ptr, ptr, i64, %struct._zend_call_stack, i64, i64, [6 x ptr] }
%struct.zend_atomic_bool_s = type { i8 }
%struct._zval_struct = type { %union._zend_value, %union.anon.0, %union.anon.3 }
%union._zend_value = type { i64 }
%union.anon.0 = type { i32 }
%union.anon.3 = type { i32 }
%struct._zend_stack = type { i32, i32, i32, ptr }
%struct._zend_objects_store = type { ptr, i32, i32, i32 }
%struct._HashTableIterator = type { ptr, i32, i32 }
%union._zend_function = type { %struct._zend_op_array }
%struct._zend_op_array = type { i8, [3 x i8], i32, ptr, ptr, ptr, i32, i32, ptr, ptr, ptr, ptr, i32, i32, i32, i32, ptr, ptr, ptr, ptr, ptr, i32, i32, ptr, ptr, ptr, i32, i32, i32, i32, ptr, ptr, [6 x ptr] }
%struct._zend_op = type { ptr, %union._znode_op, %union._znode_op, %union._znode_op, i32, i32, i8, i8, i8, i8 }
%union._znode_op = type { i32 }
%struct._zend_array = type { %struct._zend_refcounted_h, %union.anon.5, i32, %union.anon.7, i32, i32, i32, i32, i64, ptr }
%struct._zend_refcounted_h = type { i32, %union.anon }
%union.anon = type { i32 }
%union.anon.5 = type { i32 }
%union.anon.7 = type { ptr }
%struct.zend_get_gc_buffer = type { ptr, ptr, ptr }
%struct._zend_call_stack = type { ptr, i64 }
%struct._zend_class_entry = type { i8, ptr, %union.anon.10, i32, i32, i32, i32, ptr, ptr, ptr, %struct._zend_array, %struct._zend_array, %struct._zend_array, ptr, ptr, ptr, ptr, ptr, ptr, ptr, ptr, ptr, ptr, ptr, ptr, ptr, ptr, ptr, ptr, ptr, ptr, ptr, %union.anon.11, ptr, ptr, ptr, ptr, i32, i32, %union.anon.12, ptr, ptr, ptr, ptr, i32, ptr, ptr, %union.anon.13 }
%union.anon.10 = type { ptr }
%union.anon.11 = type { ptr }
%union.anon.12 = type { ptr }
%union.anon.13 = type { %struct.anon.14 }
%struct.anon.14 = type { ptr, i32, i32 }
%struct._zend_string = type { %struct._zend_refcounted_h, i64, i64, [1 x i8] }
%struct._php_date_obj = type { ptr, %struct._zend_object }
%struct._zend_object = type { %struct._zend_refcounted_h, i32, ptr, ptr, ptr, [1 x %struct._zval_struct] }
%struct._timelib_time = type { i64, i64, i64, i64, i64, i64, i64, i32, ptr, ptr, i32, %struct._timelib_rel_time, i64, i32, i32, i32, i32, i32, i32, i32, i32, i32 }
%struct._timelib_rel_time = type { i64, i64, i64, i64, i64, i64, i64, i32, i32, i32, i32, i64, %struct.anon.4, i32, i32 }
%struct.anon.4 = type { i32, i64 }
%struct._timelib_time_offset = type { i32, i32, i32, ptr, i64 }
%struct._zend_execute_data = type { ptr, ptr, ptr, ptr, %struct._zval_struct, ptr, ptr, ptr, ptr }
%struct._php_timezone_obj = type { i8, i32, %union.anon.9, %struct._zend_object }
%union.anon.9 = type { %struct._timelib_abbr_info }
%struct._timelib_abbr_info = type { i64, ptr, i32 }

@date_ce_interface = hidden global ptr null, align 8
@date_ce_timezone = hidden global ptr null, align 8
@executor_globals = external global %struct._zend_executor_globals, align 8
@.str.45 = private unnamed_addr constant [3 x i8] c"OO\00", align 1
@date_ce_date_object_error = hidden global ptr null, align 8
@.str.383 = private unnamed_addr constant [105 x i8] c"Object of type %s has not been correctly initialized by calling parent::__construct() in its constructor\00", align 1
@.str.384 = private unnamed_addr constant [101 x i8] c"Object of type %s not been correctly initialized by calling parent::__construct() in its constructor\00", align 1
@.str.385 = private unnamed_addr constant [121 x i8] c"Object of type %s (inheriting %s) has not been correctly initialized by calling parent::__construct() in its constructor\00", align 1

; Function Attrs: nounwind uwtable
define internal ptr @php_date_obj_from_obj(ptr noundef %0) #0 {
  %2 = alloca ptr, align 8
  store ptr %0, ptr %2, align 8
  %3 = load ptr, ptr %2, align 8
  %4 = getelementptr inbounds i8, ptr %3, i64 -8
  ret ptr %4
}

; Function Attrs: nounwind uwtable
define internal void @date_throw_uninitialized_error(ptr noundef %0) #0 {
  %2 = alloca ptr, align 8
  %3 = alloca ptr, align 8
  store ptr %0, ptr %2, align 8
  %4 = load ptr, ptr %2, align 8
  %5 = getelementptr inbounds %struct._zend_class_entry, ptr %4, i32 0, i32 0
  %6 = load i8, ptr %5, align 8
  %7 = sext i8 %6 to i32
  %8 = icmp eq i32 %7, 1
  br i1 %8, label %9, label %16

9:                                                ; preds = %1
  %10 = load ptr, ptr @date_ce_date_object_error, align 8
  %11 = load ptr, ptr %2, align 8
  %12 = getelementptr inbounds %struct._zend_class_entry, ptr %11, i32 0, i32 1
  %13 = load ptr, ptr %12, align 8
  %14 = getelementptr inbounds %struct._zend_string, ptr %13, i32 0, i32 3
  %15 = getelementptr inbounds [1 x i8], ptr %14, i64 0, i64 0
  call void (ptr, ptr, ...) @zend_throw_error(ptr noundef %10, ptr noundef @.str.383, ptr noundef %15)
  br label %63

16:                                               ; preds = %1
  %17 = load ptr, ptr %2, align 8
  store ptr %17, ptr %3, align 8
  br label %18

18:                                               ; preds = %34, %16
  %19 = load ptr, ptr %3, align 8
  %20 = icmp ne ptr %19, null
  br i1 %20, label %21, label %32

21:                                               ; preds = %18
  %22 = load ptr, ptr %3, align 8
  %23 = getelementptr inbounds %struct._zend_class_entry, ptr %22, i32 0, i32 2
  %24 = load ptr, ptr %23, align 8
  %25 = icmp ne ptr %24, null
  br i1 %25, label %26, label %32

26:                                               ; preds = %21
  %27 = load ptr, ptr %3, align 8
  %28 = getelementptr inbounds %struct._zend_class_entry, ptr %27, i32 0, i32 0
  %29 = load i8, ptr %28, align 8
  %30 = sext i8 %29 to i32
  %31 = icmp eq i32 %30, 2
  br label %32

32:                                               ; preds = %26, %21, %18
  %33 = phi i1 [ false, %21 ], [ false, %18 ], [ %31, %26 ]
  br i1 %33, label %34, label %38

34:                                               ; preds = %32
  %35 = load ptr, ptr %3, align 8
  %36 = getelementptr inbounds %struct._zend_class_entry, ptr %35, i32 0, i32 2
  %37 = load ptr, ptr %36, align 8
  store ptr %37, ptr %3, align 8
  br label %18

38:                                               ; preds = %32
  %39 = load ptr, ptr %3, align 8
  %40 = getelementptr inbounds %struct._zend_class_entry, ptr %39, i32 0, i32 0
  %41 = load i8, ptr %40, align 8
  %42 = sext i8 %41 to i32
  %43 = icmp ne i32 %42, 1
  br i1 %43, label %44, label %51

44:                                               ; preds = %38
  %45 = load ptr, ptr @date_ce_date_object_error, align 8
  %46 = load ptr, ptr %2, align 8
  %47 = getelementptr inbounds %struct._zend_class_entry, ptr %46, i32 0, i32 1
  %48 = load ptr, ptr %47, align 8
  %49 = getelementptr inbounds %struct._zend_string, ptr %48, i32 0, i32 3
  %50 = getelementptr inbounds [1 x i8], ptr %49, i64 0, i64 0
  call void (ptr, ptr, ...) @zend_throw_error(ptr noundef %45, ptr noundef @.str.384, ptr noundef %50)
  br label %51

51:                                               ; preds = %44, %38
  %52 = load ptr, ptr @date_ce_date_object_error, align 8
  %53 = load ptr, ptr %2, align 8
  %54 = getelementptr inbounds %struct._zend_class_entry, ptr %53, i32 0, i32 1
  %55 = load ptr, ptr %54, align 8
  %56 = getelementptr inbounds %struct._zend_string, ptr %55, i32 0, i32 3
  %57 = getelementptr inbounds [1 x i8], ptr %56, i64 0, i64 0
  %58 = load ptr, ptr %3, align 8
  %59 = getelementptr inbounds %struct._zend_class_entry, ptr %58, i32 0, i32 1
  %60 = load ptr, ptr %59, align 8
  %61 = getelementptr inbounds %struct._zend_string, ptr %60, i32 0, i32 3
  %62 = getelementptr inbounds [1 x i8], ptr %61, i64 0, i64 0
  call void (ptr, ptr, ...) @zend_throw_error(ptr noundef %52, ptr noundef @.str.385, ptr noundef %57, ptr noundef %62)
  br label %63

63:                                               ; preds = %51, %9
  ret void
}

; Function Attrs: nounwind uwtable
define internal ptr @php_timezone_obj_from_obj(ptr noundef %0) #0 {
  %2 = alloca ptr, align 8
  store ptr %0, ptr %2, align 8
  %3 = load ptr, ptr %2, align 8
  %4 = getelementptr inbounds i8, ptr %3, i64 -32
  ret ptr %4
}

; Function Attrs: nounwind uwtable
define hidden void @zif_timezone_offset_get(ptr noundef %0, ptr noundef %1) #0 {
  %3 = alloca ptr, align 8
  %4 = alloca ptr, align 8
  %5 = alloca ptr, align 8
  %6 = alloca ptr, align 8
  %7 = alloca ptr, align 8
  %8 = alloca ptr, align 8
  %9 = alloca ptr, align 8
  %10 = alloca ptr, align 8
  %11 = alloca ptr, align 8
  %12 = alloca ptr, align 8
  %13 = alloca ptr, align 8
  store ptr %0, ptr %4, align 8
  store ptr %1, ptr %5, align 8
  %14 = load ptr, ptr %4, align 8
  %15 = getelementptr inbounds %struct._zend_execute_data, ptr %14, i32 0, i32 4
  %16 = getelementptr inbounds %struct._zval_struct, ptr %15, i32 0, i32 2
  %17 = load i32, ptr %16, align 4
  %18 = load ptr, ptr %4, align 8
  %19 = getelementptr inbounds %struct._zend_execute_data, ptr %18, i32 0, i32 4
  store ptr %19, ptr %3, align 8
  %20 = load ptr, ptr %3, align 8
  %21 = getelementptr inbounds %struct._zval_struct, ptr %20, i32 0, i32 1
  %22 = load i8, ptr %21, align 8
  %23 = zext i8 %22 to i32
  %24 = icmp eq i32 %23, 8
  br i1 %24, label %25, label %28

25:                                               ; preds = %2
  %26 = load ptr, ptr %4, align 8
  %27 = getelementptr inbounds %struct._zend_execute_data, ptr %26, i32 0, i32 4
  br label %29

28:                                               ; preds = %2
  br label %29

29:                                               ; preds = %28, %25
  %30 = phi ptr [ %27, %25 ], [ null, %28 ]
  %31 = load ptr, ptr @date_ce_timezone, align 8
  %32 = load ptr, ptr @date_ce_interface, align 8
  %33 = call i32 (i32, ptr, ptr, ...) @zend_parse_method_parameters(i32 noundef %17, ptr noundef %30, ptr noundef @.str.45, ptr noundef %6, ptr noundef %31, ptr noundef %7, ptr noundef %32)
  %34 = icmp eq i32 %33, -1
  br i1 %34, label %35, label %40

35:                                               ; preds = %29
  br label %36

36:                                               ; preds = %35
  %37 = load ptr, ptr getelementptr inbounds (%struct._zend_executor_globals, ptr @executor_globals, i32 0, i32 50), align 8
  %38 = icmp ne ptr %37, null
  call void @llvm.assume(i1 %38)
  br label %138

39:                                               ; No predecessors!
  br label %40

40:                                               ; preds = %39, %29
  %41 = load ptr, ptr %6, align 8
  %42 = getelementptr inbounds %struct._zval_struct, ptr %41, i32 0, i32 0
  %43 = load ptr, ptr %42, align 8
  %44 = call ptr @php_timezone_obj_from_obj(ptr noundef %43)
  store ptr %44, ptr %8, align 8
  %45 = load ptr, ptr %8, align 8
  %46 = getelementptr inbounds %struct._php_timezone_obj, ptr %45, i32 0, i32 0
  %47 = load i8, ptr %46, align 8
  %48 = trunc i8 %47 to i1
  br i1 %48, label %59, label %49

49:                                               ; preds = %40
  %50 = load ptr, ptr %6, align 8
  %51 = getelementptr inbounds %struct._zval_struct, ptr %50, i32 0, i32 0
  %52 = load ptr, ptr %51, align 8
  %53 = getelementptr inbounds %struct._zend_object, ptr %52, i32 0, i32 2
  %54 = load ptr, ptr %53, align 8
  call void @date_throw_uninitialized_error(ptr noundef %54)
  br label %55

55:                                               ; preds = %49
  %56 = load ptr, ptr getelementptr inbounds (%struct._zend_executor_globals, ptr @executor_globals, i32 0, i32 50), align 8
  %57 = icmp ne ptr %56, null
  call void @llvm.assume(i1 %57)
  br label %138

58:                                               ; No predecessors!
  br label %59

59:                                               ; preds = %58, %40
  %60 = load ptr, ptr %7, align 8
  %61 = getelementptr inbounds %struct._zval_struct, ptr %60, i32 0, i32 0
  %62 = load ptr, ptr %61, align 8
  %63 = call ptr @php_date_obj_from_obj(ptr noundef %62)
  store ptr %63, ptr %9, align 8
  %64 = load ptr, ptr %9, align 8
  %65 = getelementptr inbounds %struct._php_date_obj, ptr %64, i32 0, i32 0
  %66 = load ptr, ptr %65, align 8
  %67 = icmp ne ptr %66, null
  br i1 %67, label %78, label %68

68:                                               ; preds = %59
  %69 = load ptr, ptr %7, align 8
  %70 = getelementptr inbounds %struct._zval_struct, ptr %69, i32 0, i32 0
  %71 = load ptr, ptr %70, align 8
  %72 = getelementptr inbounds %struct._zend_object, ptr %71, i32 0, i32 2
  %73 = load ptr, ptr %72, align 8
  call void @date_throw_uninitialized_error(ptr noundef %73)
  br label %74

74:                                               ; preds = %68
  %75 = load ptr, ptr getelementptr inbounds (%struct._zend_executor_globals, ptr @executor_globals, i32 0, i32 50), align 8
  %76 = icmp ne ptr %75, null
  call void @llvm.assume(i1 %76)
  br label %138

77:                                               ; No predecessors!
  br label %78

78:                                               ; preds = %77, %59
  %79 = load ptr, ptr %8, align 8
  %80 = getelementptr inbounds %struct._php_timezone_obj, ptr %79, i32 0, i32 1
  %81 = load i32, ptr %80, align 4
  switch i32 %81, label %138 [
    i32 3, label %82
    i32 1, label %104
    i32 2, label %117
  ]

82:                                               ; preds = %78
  %83 = load ptr, ptr %9, align 8
  %84 = getelementptr inbounds %struct._php_date_obj, ptr %83, i32 0, i32 0
  %85 = load ptr, ptr %84, align 8
  %86 = getelementptr inbounds %struct._timelib_time, ptr %85, i32 0, i32 12
  %87 = load i64, ptr %86, align 8
  %88 = load ptr, ptr %8, align 8
  %89 = getelementptr inbounds %struct._php_timezone_obj, ptr %88, i32 0, i32 2
  %90 = load ptr, ptr %89, align 8
  %91 = call ptr @timelib_get_time_zone_info(i64 noundef %87, ptr noundef %90)
  store ptr %91, ptr %10, align 8
  br label %92

92:                                               ; preds = %82
  %93 = load ptr, ptr %5, align 8
  store ptr %93, ptr %11, align 8
  %94 = load ptr, ptr %10, align 8
  %95 = getelementptr inbounds %struct._timelib_time_offset, ptr %94, i32 0, i32 0
  %96 = load i32, ptr %95, align 8
  %97 = sext i32 %96 to i64
  %98 = load ptr, ptr %11, align 8
  %99 = getelementptr inbounds %struct._zval_struct, ptr %98, i32 0, i32 0
  store i64 %97, ptr %99, align 8
  %100 = load ptr, ptr %11, align 8
  %101 = getelementptr inbounds %struct._zval_struct, ptr %100, i32 0, i32 1
  store i32 4, ptr %101, align 8
  br label %102

102:                                              ; preds = %92
  %103 = load ptr, ptr %10, align 8
  call void @timelib_time_offset_dtor(ptr noundef %103)
  br label %138

104:                                              ; preds = %78
  br label %105

105:                                              ; preds = %104
  br label %106

106:                                              ; preds = %105
  %107 = load ptr, ptr %5, align 8
  store ptr %107, ptr %12, align 8
  %108 = load ptr, ptr %8, align 8
  %109 = getelementptr inbounds %struct._php_timezone_obj, ptr %108, i32 0, i32 2
  %110 = load i64, ptr %109, align 8
  %111 = load ptr, ptr %12, align 8
  %112 = getelementptr inbounds %struct._zval_struct, ptr %111, i32 0, i32 0
  store i64 %110, ptr %112, align 8
  %113 = load ptr, ptr %12, align 8
  %114 = getelementptr inbounds %struct._zval_struct, ptr %113, i32 0, i32 1
  store i32 4, ptr %114, align 8
  br label %115

115:                                              ; preds = %106
  br label %138

116:                                              ; No predecessors!
  br label %138

117:                                              ; preds = %78
  br label %118

118:                                              ; preds = %117
  br label %119

119:                                              ; preds = %118
  %120 = load ptr, ptr %5, align 8
  store ptr %120, ptr %13, align 8
  %121 = load ptr, ptr %8, align 8
  %122 = getelementptr inbounds %struct._php_timezone_obj, ptr %121, i32 0, i32 2
  %123 = getelementptr inbounds %struct._timelib_abbr_info, ptr %122, i32 0, i32 0
  %124 = load i64, ptr %123, align 8
  %125 = load ptr, ptr %8, align 8
  %126 = getelementptr inbounds %struct._php_timezone_obj, ptr %125, i32 0, i32 2
  %127 = getelementptr inbounds %struct._timelib_abbr_info, ptr %126, i32 0, i32 2
  %128 = load i32, ptr %127, align 8
  %129 = mul nsw i32 %128, 3600
  %130 = sext i32 %129 to i64
  %131 = add nsw i64 %124, %130
  %132 = load ptr, ptr %13, align 8
  %133 = getelementptr inbounds %struct._zval_struct, ptr %132, i32 0, i32 0
  store i64 %131, ptr %133, align 8
  %134 = load ptr, ptr %13, align 8
  %135 = getelementptr inbounds %struct._zval_struct, ptr %134, i32 0, i32 1
  store i32 4, ptr %135, align 8
  br label %136

136:                                              ; preds = %119
  br label %138

137:                                              ; No predecessors!
  br label %138

138:                                              ; preds = %137, %136, %116, %115, %102, %78, %74, %55, %36
  ret void
}