; Function Attrs: nounwind uwtable
define hidden void @zif_timezone_offset_get(ptr noundef %0, ptr nocapture noundef writeonly %1) #0 {
  %3 = alloca ptr, align 8
  %4 = alloca ptr, align 8
  %5 = getelementptr inbounds i8, ptr %0, i64 32
  %6 = getelementptr inbounds i8, ptr %0, i64 44
  %7 = load i32, ptr %6, align 4
  %8 = getelementptr inbounds i8, ptr %0, i64 40
  %9 = load i8, ptr %8, align 8
  %10 = icmp eq i8 %9, 8
  %11 = select i1 %10, ptr %5, ptr null
  %12 = load ptr, ptr @date_ce_timezone, align 8
  %13 = load ptr, ptr @date_ce_interface, align 8
  %14 = call i32 (i32, ptr, ptr, ...) @zend_parse_method_parameters(i32 noundef %7, ptr noundef %11, ptr noundef nonnull @.str.45, ptr noundef nonnull %3, ptr noundef %12, ptr noundef nonnull %4, ptr noundef %13) #25
  %15 = icmp eq i32 %14, -1
  br i1 %15, label %16, label %19

16:                                               ; preds = %2
  %17 = load ptr, ptr getelementptr inbounds (%struct._zend_executor_globals, ptr @executor_globals, i64 0, i32 50), align 8
  %18 = icmp ne ptr %17, null
  call void @llvm.assume(i1 %18)
  br label %111

19:                                               ; preds = %2
  %20 = load ptr, ptr %3, align 8
  %21 = load ptr, ptr %20, align 8
  %22 = getelementptr inbounds i8, ptr %21, i64 -32
  %23 = load i8, ptr %22, align 8
  %24 = and i8 %23, 1
  %.not = icmp eq i8 %24, 0
  br i1 %.not, label %25, label %53

25:                                               ; preds = %19
  %26 = getelementptr inbounds i8, ptr %21, i64 16
  %27 = load ptr, ptr %26, align 8
  %28 = load i8, ptr %27, align 8
  %29 = icmp eq i8 %28, 1
  br i1 %29, label %30, label %.preheader.i

30:                                               ; preds = %25
  %31 = load ptr, ptr @date_ce_date_object_error, align 8
  %32 = getelementptr inbounds i8, ptr %27, i64 8
  %33 = load ptr, ptr %32, align 8
  %34 = getelementptr inbounds i8, ptr %33, i64 24
  call void (ptr, ptr, ...) @zend_throw_error(ptr noundef %31, ptr noundef nonnull @.str.383, ptr noundef nonnull %34) #25
  br label %date_throw_uninitialized_error.exit

.preheader.i:                                     ; preds = %25, %.preheader.i
  %.0.i = phi ptr [ %36, %.preheader.i ], [ %27, %25 ]
  %35 = getelementptr inbounds i8, ptr %.0.i, i64 16
  %36 = load ptr, ptr %35, align 8
  %.not.i = icmp ne ptr %36, null
  %.pr.i = load i8, ptr %.0.i, align 8
  %37 = icmp eq i8 %.pr.i, 2
  %or.cond = select i1 %.not.i, i1 %37, i1 false
  br i1 %or.cond, label %.preheader.i, label %.critedge.i

.critedge.i:                                      ; preds = %.preheader.i
  %.not12.i = icmp eq i8 %.pr.i, 1
  br i1 %.not12.i, label %43, label %38

38:                                               ; preds = %.critedge.i
  %39 = load ptr, ptr @date_ce_date_object_error, align 8
  %40 = getelementptr inbounds i8, ptr %27, i64 8
  %41 = load ptr, ptr %40, align 8
  %42 = getelementptr inbounds i8, ptr %41, i64 24
  call void (ptr, ptr, ...) @zend_throw_error(ptr noundef %39, ptr noundef nonnull @.str.384, ptr noundef nonnull %42) #25
  br label %43

43:                                               ; preds = %38, %.critedge.i
  %44 = load ptr, ptr @date_ce_date_object_error, align 8
  %45 = getelementptr inbounds i8, ptr %27, i64 8
  %46 = load ptr, ptr %45, align 8
  %47 = getelementptr inbounds i8, ptr %46, i64 24
  %48 = getelementptr inbounds i8, ptr %.0.i, i64 8
  %49 = load ptr, ptr %48, align 8
  %50 = getelementptr inbounds i8, ptr %49, i64 24
  call void (ptr, ptr, ...) @zend_throw_error(ptr noundef %44, ptr noundef nonnull @.str.385, ptr noundef nonnull %47, ptr noundef nonnull %50) #25
  br label %date_throw_uninitialized_error.exit

date_throw_uninitialized_error.exit:              ; preds = %30, %43
  %51 = load ptr, ptr getelementptr inbounds (%struct._zend_executor_globals, ptr @executor_globals, i64 0, i32 50), align 8
  %52 = icmp ne ptr %51, null
  call void @llvm.assume(i1 %52)
  br label %111

53:                                               ; preds = %19
  %54 = load ptr, ptr %4, align 8
  %55 = load ptr, ptr %54, align 8
  %56 = getelementptr inbounds i8, ptr %55, i64 -8
  %57 = load ptr, ptr %56, align 8
  %.not23 = icmp eq ptr %57, null
  br i1 %.not23, label %58, label %86

58:                                               ; preds = %53
  %59 = getelementptr inbounds i8, ptr %55, i64 16
  %60 = load ptr, ptr %59, align 8
  %61 = load i8, ptr %60, align 8
  %62 = icmp eq i8 %61, 1
  br i1 %62, label %63, label %.preheader.i24

63:                                               ; preds = %58
  %64 = load ptr, ptr @date_ce_date_object_error, align 8
  %65 = getelementptr inbounds i8, ptr %60, i64 8
  %66 = load ptr, ptr %65, align 8
  %67 = getelementptr inbounds i8, ptr %66, i64 24
  call void (ptr, ptr, ...) @zend_throw_error(ptr noundef %64, ptr noundef nonnull @.str.383, ptr noundef nonnull %67) #25
  br label %date_throw_uninitialized_error.exit31

.preheader.i24:                                   ; preds = %58, %.preheader.i24
  %.0.i25 = phi ptr [ %69, %.preheader.i24 ], [ %60, %58 ]
  %68 = getelementptr inbounds i8, ptr %.0.i25, i64 16
  %69 = load ptr, ptr %68, align 8
  %.not.i26 = icmp ne ptr %69, null
  %.pr.i30 = load i8, ptr %.0.i25, align 8
  %70 = icmp eq i8 %.pr.i30, 2
  %or.cond52 = select i1 %.not.i26, i1 %70, i1 false
  br i1 %or.cond52, label %.preheader.i24, label %.critedge.i27

.critedge.i27:                                    ; preds = %.preheader.i24
  %.not12.i28 = icmp eq i8 %.pr.i30, 1
  br i1 %.not12.i28, label %76, label %71

71:                                               ; preds = %.critedge.i27
  %72 = load ptr, ptr @date_ce_date_object_error, align 8
  %73 = getelementptr inbounds i8, ptr %60, i64 8
  %74 = load ptr, ptr %73, align 8
  %75 = getelementptr inbounds i8, ptr %74, i64 24
  call void (ptr, ptr, ...) @zend_throw_error(ptr noundef %72, ptr noundef nonnull @.str.384, ptr noundef nonnull %75) #25
  br label %76

76:                                               ; preds = %71, %.critedge.i27
  %77 = load ptr, ptr @date_ce_date_object_error, align 8
  %78 = getelementptr inbounds i8, ptr %60, i64 8
  %79 = load ptr, ptr %78, align 8
  %80 = getelementptr inbounds i8, ptr %79, i64 24
  %81 = getelementptr inbounds i8, ptr %.0.i25, i64 8
  %82 = load ptr, ptr %81, align 8
  %83 = getelementptr inbounds i8, ptr %82, i64 24
  call void (ptr, ptr, ...) @zend_throw_error(ptr noundef %77, ptr noundef nonnull @.str.385, ptr noundef nonnull %80, ptr noundef nonnull %83) #25
  br label %date_throw_uninitialized_error.exit31

date_throw_uninitialized_error.exit31:            ; preds = %63, %76
  %84 = load ptr, ptr getelementptr inbounds (%struct._zend_executor_globals, ptr @executor_globals, i64 0, i32 50), align 8
  %85 = icmp ne ptr %84, null
  call void @llvm.assume(i1 %85)
  br label %111

86:                                               ; preds = %53
  %87 = getelementptr inbounds i8, ptr %21, i64 -28
  %88 = load i32, ptr %87, align 4
  switch i32 %88, label %111 [
    i32 3, label %89
    i32 1, label %98
    i32 2, label %102
  ]

89:                                               ; preds = %86
  %90 = getelementptr inbounds i8, ptr %57, i64 192
  %91 = load i64, ptr %90, align 8
  %92 = getelementptr inbounds i8, ptr %21, i64 -24
  %93 = load ptr, ptr %92, align 8
  %94 = call ptr @timelib_get_time_zone_info(i64 noundef %91, ptr noundef %93) #25
  %95 = load i32, ptr %94, align 8
  %96 = sext i32 %95 to i64
  store i64 %96, ptr %1, align 8
  %97 = getelementptr inbounds i8, ptr %1, i64 8
  store i32 4, ptr %97, align 8
  call void @timelib_time_offset_dtor(ptr noundef nonnull %94) #25
  br label %111

98:                                               ; preds = %86
  %99 = getelementptr inbounds i8, ptr %21, i64 -24
  %100 = load i64, ptr %99, align 8
  store i64 %100, ptr %1, align 8
  %101 = getelementptr inbounds i8, ptr %1, i64 8
  store i32 4, ptr %101, align 8
  br label %111

102:                                              ; preds = %86
  %103 = getelementptr inbounds i8, ptr %21, i64 -24
  %104 = load i64, ptr %103, align 8
  %105 = getelementptr inbounds i8, ptr %21, i64 -8
  %106 = load i32, ptr %105, align 8
  %107 = mul nsw i32 %106, 3600
  %108 = sext i32 %107 to i64
  %109 = add nsw i64 %104, %108
  store i64 %109, ptr %1, align 8
  %110 = getelementptr inbounds i8, ptr %1, i64 8
  store i32 4, ptr %110, align 8
  br label %111

111:                                              ; preds = %102, %98, %89, %86, %date_throw_uninitialized_error.exit31, %date_throw_uninitialized_error.exit, %16
  ret void
}